; ModuleID = '24/1317.c'
source_filename = "24/1317.c"
target datalayout = "e-m:e-p270:32:32-p271:32:32-p272:64:64-i64:64-f80:128-n8:16:32:64-S128"
target triple = "x86_64-pc-linux-gnu"

@.str = private unnamed_addr constant [3 x i8] c"%s\00", align 1
@.str.1 = private unnamed_addr constant [7 x i8] c"%s\0A%s\0A\00", align 1

; Function Attrs: noinline nounwind uwtable
define dso_local void @main() #0 {
  %1 = alloca i32, align 4
  %2 = alloca i32, align 4
  %3 = alloca i32, align 4
  %4 = alloca i8*, align 8
  %5 = alloca i8*, align 8
  %6 = alloca i8*, align 8
  %7 = alloca i8, align 1
  store i32 0, i32* %1, align 4
  store i32 10000, i32* %2, align 4
  %8 = call noalias i8* @malloc(i64 100) #4
  store i8* %8, i8** %4, align 8
  %9 = call noalias i8* @malloc(i64 100) #4
  store i8* %9, i8** %5, align 8
  %10 = call noalias i8* @malloc(i64 100) #4
  store i8* %10, i8** %6, align 8
  br label %11

11:                                               ; preds = %41, %0
  %12 = load i8*, i8** %6, align 8
  %13 = call i32 (i8*, ...) @__isoc99_scanf(i8* getelementptr inbounds ([3 x i8], [3 x i8]* @.str, i64 0, i64 0), i8* %12)
  %14 = load i8*, i8** %6, align 8
  %15 = call i64 @strlen(i8* %14) #5
  %16 = trunc i64 %15 to i32
  store i32 %16, i32* %3, align 4
  %17 = load i32, i32* %3, align 4
  %18 = load i32, i32* %2, align 4
  %19 = icmp slt i32 %17, %18
  br i1 %19, label %20, label %25

20:                                               ; preds = %11
  %21 = load i8*, i8** %5, align 8
  %22 = load i8*, i8** %6, align 8
  %23 = call i8* @strcpy(i8* %21, i8* %22) #4
  %24 = load i32, i32* %3, align 4
  store i32 %24, i32* %2, align 4
  br label %25

25:                                               ; preds = %20, %11
  %26 = load i32, i32* %3, align 4
  %27 = load i32, i32* %1, align 4
  %28 = icmp sgt i32 %26, %27
  br i1 %28, label %29, label %34

29:                                               ; preds = %25
  %30 = load i8*, i8** %4, align 8
  %31 = load i8*, i8** %6, align 8
  %32 = call i8* @strcpy(i8* %30, i8* %31) #4
  %33 = load i32, i32* %3, align 4
  store i32 %33, i32* %1, align 4
  br label %34

34:                                               ; preds = %29, %25
  %35 = call i32 @getchar()
  %36 = trunc i32 %35 to i8
  store i8 %36, i8* %7, align 1
  %37 = load i8, i8* %7, align 1
  %38 = sext i8 %37 to i32
  %39 = icmp ne i32 %38, 32
  br i1 %39, label %40, label %41

40:                                               ; preds = %34
  br label %42

41:                                               ; preds = %34
  br label %11

42:                                               ; preds = %40
  %43 = load i8*, i8** %4, align 8
  %44 = load i8*, i8** %5, align 8
  %45 = call i32 (i8*, ...) @printf(i8* getelementptr inbounds ([7 x i8], [7 x i8]* @.str.1, i64 0, i64 0), i8* %43, i8* %44)
  ret void
}

; Function Attrs: nounwind
declare dso_local noalias i8* @malloc(i64) #1

declare dso_local i32 @__isoc99_scanf(i8*, ...) #2

; Function Attrs: nounwind readonly
declare dso_local i64 @strlen(i8*) #3

; Function Attrs: nounwind
declare dso_local i8* @strcpy(i8*, i8*) #1

declare dso_local i32 @getchar() #2

declare dso_local i32 @printf(i8*, ...) #2


!llvm.module.flags = !{!0}
!llvm.ident = !{!1}

!0 = !{i32 1, !"wchar_size", i32 4}
!1 = !{!"clang version 10.0.0-4ubuntu1 "}
