; ModuleID = 'source-C-CXX/23/1317.c'
source_filename = "source-C-CXX/23/1317.c"
target datalayout = "e-m:e-p270:32:32-p271:32:32-p272:64:64-i64:64-f80:128-n8:16:32:64-S128"
target triple = "x86_64-pc-linux-gnu"

%struct._IO_FILE = type { i32, i8*, i8*, i8*, i8*, i8*, i8*, i8*, i8*, i8*, i8*, i8*, %struct._IO_marker*, %struct._IO_FILE*, i32, i32, i64, i16, i8, [1 x i8], i8*, i64, %struct._IO_codecvt*, %struct._IO_wide_data*, %struct._IO_FILE*, i8*, i64, i32, [20 x i8] }
%struct._IO_marker = type opaque
%struct._IO_codecvt = type opaque
%struct._IO_wide_data = type opaque

@.str = private unnamed_addr constant [3 x i8] c"%s\00", align 1
@.str.1 = private unnamed_addr constant [7 x i8] c"%s\0A%s\0A\00", align 1
@stdin = external local_unnamed_addr global %struct._IO_FILE*, align 8

; Function Attrs: nofree nounwind sspstrong uwtable
define dso_local void @main() local_unnamed_addr #0 {
  %1 = tail call noalias align 16 dereferenceable_or_null(100) i8* @malloc(i64 100) #5
  %2 = tail call noalias align 16 dereferenceable_or_null(100) i8* @malloc(i64 100) #5
  %3 = tail call noalias align 16 dereferenceable_or_null(100) i8* @malloc(i64 100) #5
  br label %4

4:                                                ; preds = %18, %0
  %5 = phi i32 [ 10000, %0 ], [ %14, %18 ]
  %6 = phi i32 [ 0, %0 ], [ %19, %18 ]
  %7 = tail call i32 (i8*, ...) @__isoc99_scanf(i8* getelementptr inbounds ([3 x i8], [3 x i8]* @.str, i64 0, i64 0), i8* %3)
  %8 = tail call i64 @strlen(i8* noundef nonnull dereferenceable(1) %3) #6
  %9 = trunc i64 %8 to i32
  %10 = icmp sgt i32 %5, %9
  br i1 %10, label %11, label %13

11:                                               ; preds = %4
  %12 = tail call i8* @strcpy(i8* noundef nonnull dereferenceable(1) %2, i8* noundef nonnull dereferenceable(1) %3) #5
  br label %13

13:                                               ; preds = %11, %4
  %14 = phi i32 [ %9, %11 ], [ %5, %4 ]
  %15 = icmp slt i32 %6, %9
  br i1 %15, label %16, label %18

16:                                               ; preds = %13
  %17 = tail call i8* @strcpy(i8* noundef nonnull dereferenceable(1) %1, i8* noundef nonnull dereferenceable(1) %3) #5
  br label %18

18:                                               ; preds = %16, %13
  %19 = phi i32 [ %9, %16 ], [ %6, %13 ]
  %20 = load %struct._IO_FILE*, %struct._IO_FILE** @stdin, align 8, !tbaa !5
  %21 = tail call i32 @getc(%struct._IO_FILE* %20) #5
  %22 = and i32 %21, 255
  %23 = icmp eq i32 %22, 32
  br i1 %23, label %4, label %24

24:                                               ; preds = %18
  %25 = tail call i32 (i8*, ...) @printf(i8* nonnull dereferenceable(1) getelementptr inbounds ([7 x i8], [7 x i8]* @.str.1, i64 0, i64 0), i8* %1, i8* %2)
  ret void
}

; Function Attrs: inaccessiblememonly mustprogress nofree nounwind willreturn
declare noalias noundef align 16 i8* @malloc(i64 noundef) local_unnamed_addr #1

; Function Attrs: nofree nounwind
declare noundef i32 @__isoc99_scanf(i8* nocapture noundef readonly, ...) local_unnamed_addr #2

; Function Attrs: argmemonly mustprogress nofree nounwind readonly willreturn
declare i64 @strlen(i8* nocapture) local_unnamed_addr #3

; Function Attrs: argmemonly mustprogress nofree nounwind willreturn
declare i8* @strcpy(i8* noalias returned writeonly, i8* noalias nocapture readonly) local_unnamed_addr #4

; Function Attrs: nofree nounwind
declare noundef i32 @printf(i8* nocapture noundef readonly, ...) local_unnamed_addr #2

; Function Attrs: nofree nounwind
declare noundef i32 @getc(%struct._IO_FILE* nocapture noundef) local_unnamed_addr #2


!llvm.module.flags = !{!0, !1, !2, !3}
!llvm.ident = !{!4}

!0 = !{i32 1, !"wchar_size", i32 4}
!1 = !{i32 7, !"PIC Level", i32 2}
!2 = !{i32 7, !"PIE Level", i32 2}
!3 = !{i32 7, !"uwtable", i32 1}
!4 = !{!"clang version 13.0.0"}
!5 = !{!6, !6, i64 0}
!6 = !{!"any pointer", !7, i64 0}
!7 = !{!"omnipotent char", !8, i64 0}
!8 = !{!"Simple C/C++ TBAA"}
